target datalayout = "e-m:e-p270:32:32-p271:32:32-p272:64:64-i64:64-i128:128-f80:128-n8:16:32:64-S128"
target triple = "x86_64-pc-linux-gnu"

%struct.lv_color_t = type { i8, i8, i8 }

; Function Attrs: nounwind uwtable
define i24 @lv_palette_lighten(i32 noundef %0, i8 noundef zeroext %1) #0 {
  %3 = alloca %struct.lv_color_t, align 1
  %4 = alloca i32, align 4
  %5 = alloca i8, align 1
  %6 = alloca i24, align 4
  store i32 %0, ptr %4, align 4, !tbaa !3
  store i8 %1, ptr %5, align 1, !tbaa !8
  %7 = load i32, ptr %4, align 4, !tbaa !3
  %8 = icmp uge i32 %7, 19
  br i1 %8, label %9, label %13

9:                                                ; preds = %2
  br label %10

10:                                               ; preds = %9
  br label %11

11:                                               ; preds = %10
  %12 = call i24 @lv_color_black()
  store i24 %12, ptr %3, align 1
  br label %34

13:                                               ; preds = %2
  %14 = load i8, ptr %5, align 1, !tbaa !8
  %15 = zext i8 %14 to i32
  %16 = icmp eq i32 %15, 0
  br i1 %16, label %21, label %17

17:                                               ; preds = %13
  %18 = load i8, ptr %5, align 1, !tbaa !8
  %19 = zext i8 %18 to i32
  %20 = icmp sgt i32 %19, 5
  br i1 %20, label %21, label %25

21:                                               ; preds = %17, %13
  br label %22

22:                                               ; preds = %21
  br label %23

23:                                               ; preds = %22
  %24 = call i24 @lv_color_black()
  store i24 %24, ptr %3, align 1
  br label %34

25:                                               ; preds = %17
  %26 = load i8, ptr %5, align 1, !tbaa !8
  %27 = add i8 %26, -1
  store i8 %27, ptr %5, align 1, !tbaa !8
  %28 = load i32, ptr %4, align 4, !tbaa !3
  %29 = zext i32 %28 to i64
  %30 = getelementptr inbounds nuw [19 x [5 x %struct.lv_color_t]], ptr @lv_palette_lighten.colors, i64 0, i64 %29
  %31 = load i8, ptr %5, align 1, !tbaa !8
  %32 = zext i8 %31 to i64
  %33 = getelementptr inbounds nuw [5 x %struct.lv_color_t], ptr %30, i64 0, i64 %32
  call void @llvm.memcpy.p0.p0.i64(ptr align 1 %3, ptr align 1 %33, i64 3, i1 false), !tbaa.struct !7
  br label %34

34:                                               ; preds = %25, %23, %11
  call void @llvm.memcpy.p0.p0.i64(ptr align 4 %6, ptr align 1 %3, i64 3, i1 false)
  %35 = load i24, ptr %6, align 4
  ret i24 %35
}