; Function Attrs: nounwind uwtable
define i24 @lv_palette_lighten(i32 noundef %0, i8 noundef zeroext %1) local_unnamed_addr #0 {
  %3 = icmp ugt i32 %0, 18
  br i1 %3, label %4, label %6

4:                                                ; preds = %2
  %5 = tail call i24 @lv_color_black() #2
  br label %15

6:                                                ; preds = %2
  %7 = add i8 %1, -6
  %or.cond = icmp ult i8 %7, -5
  br i1 %or.cond, label %8, label %10

8:                                                ; preds = %6
  %9 = tail call i24 @lv_color_black() #2
  br label %15

10:                                               ; preds = %6
  %11 = add nsw i8 %1, -1
  %12 = zext nneg i32 %0 to i64
  %13 = zext nneg i8 %11 to i64
  %14 = getelementptr inbounds nuw [19 x [5 x %struct.lv_color_t]], ptr @lv_palette_lighten.colors, i64 0, i64 %12, i64 %13
  %.sroa.0.0.copyload = load i24, ptr %14, align 1
  br label %15

15:                                               ; preds = %10, %8, %4
  %.sroa.0.0 = phi i24 [ %5, %4 ], [ %9, %8 ], [ %.sroa.0.0.copyload, %10 ]
  ret i24 %.sroa.0.0
}